; ModuleID = '46/3527.c'
source_filename = "46/3527.c"
target datalayout = "e-m:e-p270:32:32-p271:32:32-p272:64:64-i64:64-f80:128-n8:16:32:64-S128"
target triple = "x86_64-pc-linux-gnu"

@.str = private unnamed_addr constant [5 x i8] c"%d%d\00", align 1
@.str.1 = private unnamed_addr constant [3 x i8] c"%d\00", align 1
@.str.2 = private unnamed_addr constant [4 x i8] c"%d\0A\00", align 1

; Function Attrs: noinline nounwind uwtable
define dso_local i32 @main() #0 {
  %1 = alloca i32, align 4
  %2 = alloca i32, align 4
  %3 = alloca i32, align 4
  %4 = alloca i32, align 4
  %5 = alloca i32, align 4
  %6 = alloca i32, align 4
  %7 = alloca i32, align 4
  %8 = alloca i32, align 4
  %9 = alloca [200 x [200 x i32]], align 16
  store i32 0, i32* %1, align 4
  store i32 0, i32* %8, align 4
  %10 = call i32 (i8*, ...) @__isoc99_scanf(i8* getelementptr inbounds ([5 x i8], [5 x i8]* @.str, i64 0, i64 0), i32* %6, i32* %7)
  %11 = load i32, i32* %6, align 4
  %12 = load i32, i32* %7, align 4
  %13 = mul nsw i32 %11, %12
  store i32 %13, i32* %5, align 4
  store i32 0, i32* %2, align 4
  br label %14

14:                                               ; preds = %35, %0
  %15 = load i32, i32* %2, align 4
  %16 = load i32, i32* %6, align 4
  %17 = icmp slt i32 %15, %16
  br i1 %17, label %18, label %38

18:                                               ; preds = %14
  store i32 0, i32* %3, align 4
  br label %19

19:                                               ; preds = %31, %18
  %20 = load i32, i32* %3, align 4
  %21 = load i32, i32* %7, align 4
  %22 = icmp slt i32 %20, %21
  br i1 %22, label %23, label %34

23:                                               ; preds = %19
  %24 = load i32, i32* %2, align 4
  %25 = sext i32 %24 to i64
  %26 = getelementptr inbounds [200 x [200 x i32]], [200 x [200 x i32]]* %9, i64 0, i64 %25
  %27 = load i32, i32* %3, align 4
  %28 = sext i32 %27 to i64
  %29 = getelementptr inbounds [200 x i32], [200 x i32]* %26, i64 0, i64 %28
  %30 = call i32 (i8*, ...) @__isoc99_scanf(i8* getelementptr inbounds ([3 x i8], [3 x i8]* @.str.1, i64 0, i64 0), i32* %29)
  br label %31

31:                                               ; preds = %23
  %32 = load i32, i32* %3, align 4
  %33 = add nsw i32 %32, 1
  store i32 %33, i32* %3, align 4
  br label %19

34:                                               ; preds = %19
  br label %35

35:                                               ; preds = %34
  %36 = load i32, i32* %2, align 4
  %37 = add nsw i32 %36, 1
  store i32 %37, i32* %2, align 4
  br label %14

38:                                               ; preds = %14
  store i32 0, i32* %4, align 4
  br label %39

39:                                               ; preds = %157, %38
  %40 = load i32, i32* %4, align 4
  store i32 %40, i32* %2, align 4
  br label %41

41:                                               ; preds = %58, %39
  %42 = load i32, i32* %2, align 4
  %43 = load i32, i32* %7, align 4
  %44 = load i32, i32* %4, align 4
  %45 = sub nsw i32 %43, %44
  %46 = icmp slt i32 %42, %45
  br i1 %46, label %47, label %61

47:                                               ; preds = %41
  %48 = load i32, i32* %4, align 4
  %49 = sext i32 %48 to i64
  %50 = getelementptr inbounds [200 x [200 x i32]], [200 x [200 x i32]]* %9, i64 0, i64 %49
  %51 = load i32, i32* %2, align 4
  %52 = sext i32 %51 to i64
  %53 = getelementptr inbounds [200 x i32], [200 x i32]* %50, i64 0, i64 %52
  %54 = load i32, i32* %53, align 4
  %55 = call i32 (i8*, ...) @printf(i8* getelementptr inbounds ([4 x i8], [4 x i8]* @.str.2, i64 0, i64 0), i32 %54)
  %56 = load i32, i32* %8, align 4
  %57 = add nsw i32 %56, 1
  store i32 %57, i32* %8, align 4
  br label %58

58:                                               ; preds = %47
  %59 = load i32, i32* %2, align 4
  %60 = add nsw i32 %59, 1
  store i32 %60, i32* %2, align 4
  br label %41

61:                                               ; preds = %41
  %62 = load i32, i32* %8, align 4
  %63 = load i32, i32* %5, align 4
  %64 = icmp eq i32 %62, %63
  br i1 %64, label %65, label %66

65:                                               ; preds = %61
  br label %160

66:                                               ; preds = %61
  %67 = load i32, i32* %4, align 4
  %68 = add nsw i32 %67, 1
  store i32 %68, i32* %3, align 4
  br label %69

69:                                               ; preds = %89, %66
  %70 = load i32, i32* %3, align 4
  %71 = load i32, i32* %6, align 4
  %72 = load i32, i32* %4, align 4
  %73 = sub nsw i32 %71, %72
  %74 = icmp slt i32 %70, %73
  br i1 %74, label %75, label %92

75:                                               ; preds = %69
  %76 = load i32, i32* %3, align 4
  %77 = sext i32 %76 to i64
  %78 = getelementptr inbounds [200 x [200 x i32]], [200 x [200 x i32]]* %9, i64 0, i64 %77
  %79 = load i32, i32* %7, align 4
  %80 = load i32, i32* %4, align 4
  %81 = sub nsw i32 %79, %80
  %82 = sub nsw i32 %81, 1
  %83 = sext i32 %82 to i64
  %84 = getelementptr inbounds [200 x i32], [200 x i32]* %78, i64 0, i64 %83
  %85 = load i32, i32* %84, align 4
  %86 = call i32 (i8*, ...) @printf(i8* getelementptr inbounds ([4 x i8], [4 x i8]* @.str.2, i64 0, i64 0), i32 %85)
  %87 = load i32, i32* %8, align 4
  %88 = add nsw i32 %87, 1
  store i32 %88, i32* %8, align 4
  br label %89

89:                                               ; preds = %75
  %90 = load i32, i32* %3, align 4
  %91 = add nsw i32 %90, 1
  store i32 %91, i32* %3, align 4
  br label %69

92:                                               ; preds = %69
  %93 = load i32, i32* %8, align 4
  %94 = load i32, i32* %5, align 4
  %95 = icmp eq i32 %93, %94
  br i1 %95, label %96, label %97

96:                                               ; preds = %92
  br label %160

97:                                               ; preds = %92
  %98 = load i32, i32* %7, align 4
  %99 = sub nsw i32 %98, 2
  %100 = load i32, i32* %4, align 4
  %101 = sub nsw i32 %99, %100
  store i32 %101, i32* %2, align 4
  br label %102

102:                                              ; preds = %120, %97
  %103 = load i32, i32* %2, align 4
  %104 = load i32, i32* %4, align 4
  %105 = icmp sge i32 %103, %104
  br i1 %105, label %106, label %123

106:                                              ; preds = %102
  %107 = load i32, i32* %6, align 4
  %108 = load i32, i32* %4, align 4
  %109 = sub nsw i32 %107, %108
  %110 = sub nsw i32 %109, 1
  %111 = sext i32 %110 to i64
  %112 = getelementptr inbounds [200 x [200 x i32]], [200 x [200 x i32]]* %9, i64 0, i64 %111
  %113 = load i32, i32* %2, align 4
  %114 = sext i32 %113 to i64
  %115 = getelementptr inbounds [200 x i32], [200 x i32]* %112, i64 0, i64 %114
  %116 = load i32, i32* %115, align 4
  %117 = call i32 (i8*, ...) @printf(i8* getelementptr inbounds ([4 x i8], [4 x i8]* @.str.2, i64 0, i64 0), i32 %116)
  %118 = load i32, i32* %8, align 4
  %119 = add nsw i32 %118, 1
  store i32 %119, i32* %8, align 4
  br label %120

120:                                              ; preds = %106
  %121 = load i32, i32* %2, align 4
  %122 = add nsw i32 %121, -1
  store i32 %122, i32* %2, align 4
  br label %102

123:                                              ; preds = %102
  %124 = load i32, i32* %8, align 4
  %125 = load i32, i32* %5, align 4
  %126 = icmp eq i32 %124, %125
  br i1 %126, label %127, label %128

127:                                              ; preds = %123
  br label %160

128:                                              ; preds = %123
  %129 = load i32, i32* %6, align 4
  %130 = sub nsw i32 %129, 2
  %131 = load i32, i32* %4, align 4
  %132 = sub nsw i32 %130, %131
  store i32 %132, i32* %3, align 4
  br label %133

133:                                              ; preds = %148, %128
  %134 = load i32, i32* %3, align 4
  %135 = load i32, i32* %4, align 4
  %136 = icmp sgt i32 %134, %135
  br i1 %136, label %137, label %151

137:                                              ; preds = %133
  %138 = load i32, i32* %3, align 4
  %139 = sext i32 %138 to i64
  %140 = getelementptr inbounds [200 x [200 x i32]], [200 x [200 x i32]]* %9, i64 0, i64 %139
  %141 = load i32, i32* %4, align 4
  %142 = sext i32 %141 to i64
  %143 = getelementptr inbounds [200 x i32], [200 x i32]* %140, i64 0, i64 %142
  %144 = load i32, i32* %143, align 4
  %145 = call i32 (i8*, ...) @printf(i8* getelementptr inbounds ([4 x i8], [4 x i8]* @.str.2, i64 0, i64 0), i32 %144)
  %146 = load i32, i32* %8, align 4
  %147 = add nsw i32 %146, 1
  store i32 %147, i32* %8, align 4
  br label %148

148:                                              ; preds = %137
  %149 = load i32, i32* %3, align 4
  %150 = add nsw i32 %149, -1
  store i32 %150, i32* %3, align 4
  br label %133

151:                                              ; preds = %133
  %152 = load i32, i32* %8, align 4
  %153 = load i32, i32* %5, align 4
  %154 = icmp eq i32 %152, %153
  br i1 %154, label %155, label %156

155:                                              ; preds = %151
  br label %160

156:                                              ; preds = %151
  br label %157

157:                                              ; preds = %156
  %158 = load i32, i32* %4, align 4
  %159 = add nsw i32 %158, 1
  store i32 %159, i32* %4, align 4
  br label %39

160:                                              ; preds = %155, %127, %96, %65
  ret i32 0
}

declare dso_local i32 @__isoc99_scanf(i8*, ...) #1

declare dso_local i32 @printf(i8*, ...) #1


!llvm.module.flags = !{!0}
!llvm.ident = !{!1}

!0 = !{i32 1, !"wchar_size", i32 4}
!1 = !{!"clang version 10.0.0-4ubuntu1 "}
